; Function Attrs: mustprogress nounwind uwtable
define hidden void @_ZNK10storeLNode4emitEP17C2_MacroAssemblerP13PhaseRegAlloc(ptr noundef nonnull align 8 dereferenceable(96) %0, ptr noundef %1, ptr noundef %2) unnamed_addr #3 align 2 {
  %4 = alloca %class.Address, align 8
  %5 = getelementptr inbounds i8, ptr %0, i64 80
  %6 = load ptr, ptr %5, align 8
  %7 = load ptr, ptr %6, align 8
  %8 = getelementptr inbounds i8, ptr %7, i64 8
  %9 = load ptr, ptr %8, align 8
  %10 = tail call noundef i32 %9(ptr noundef nonnull align 8 dereferenceable(8) %6) #23
  %11 = add i32 %10, 2
  %12 = load ptr, ptr %5, align 8
  %13 = load ptr, ptr %12, align 8
  %14 = getelementptr inbounds i8, ptr %13, i64 104
  %15 = load ptr, ptr %14, align 8
  %16 = tail call noundef i32 %15(ptr noundef nonnull align 8 dereferenceable(8) %12, ptr noundef %2, ptr noundef nonnull %0, i32 noundef 2) #23
  %17 = load ptr, ptr %5, align 8
  %18 = load ptr, ptr %17, align 8
  %19 = getelementptr inbounds i8, ptr %18, i64 112
  %20 = load ptr, ptr %19, align 8
  %21 = tail call noundef i32 %20(ptr noundef nonnull align 8 dereferenceable(8) %17, ptr noundef %2, ptr noundef nonnull %0, i32 noundef 2) #23
  %22 = load ptr, ptr %5, align 8
  %23 = load ptr, ptr %22, align 8
  %24 = getelementptr inbounds i8, ptr %23, i64 120
  %25 = load ptr, ptr %24, align 8
  %26 = tail call noundef i32 %25(ptr noundef nonnull align 8 dereferenceable(8) %22) #23
  %27 = load ptr, ptr %5, align 8
  %28 = load ptr, ptr %27, align 8
  %29 = getelementptr inbounds i8, ptr %28, i64 128
  %30 = load ptr, ptr %29, align 8
  %31 = tail call noundef i32 %30(ptr noundef nonnull align 8 dereferenceable(8) %27, ptr noundef %2, ptr noundef nonnull %0, i32 noundef 2) #23
  %32 = load ptr, ptr %5, align 8
  %33 = load ptr, ptr %32, align 8
  %34 = getelementptr inbounds i8, ptr %33, i64 136
  %35 = load ptr, ptr %34, align 8
  %36 = tail call noundef i32 %35(ptr noundef nonnull align 8 dereferenceable(8) %32) #23
  call void @_ZN7Address8make_rawEiiiiN9relocInfo9relocTypeE(ptr dead_on_unwind nonnull writable sret(%class.Address) align 8 %4, i32 noundef %16, i32 noundef %21, i32 noundef %26, i32 noundef %31, i32 noundef %36) #23
  %37 = getelementptr inbounds i8, ptr %0, i64 88
  %38 = load ptr, ptr %37, align 8
  %39 = load ptr, ptr %38, align 8
  %40 = getelementptr inbounds i8, ptr %39, i64 40
  %41 = load ptr, ptr %40, align 8
  %42 = call noundef i32 %41(ptr noundef nonnull align 8 dereferenceable(8) %38, ptr noundef %2, ptr noundef nonnull %0, i32 noundef %11) #23
  %or.cond.i.i = icmp ult i32 %42, 32
  %spec.select.i.i = select i1 %or.cond.i.i, i32 %42, i32 -1
  call void @_ZN9Assembler4movqE7Address8Register(ptr noundef nonnull align 8 dereferenceable(40) %1, ptr noundef nonnull %4, i32 %spec.select.i.i) #23
  ret void
}